Certificate:
    Data:
        Version: 3 (0x2)
        Serial Number: 1 (0x1)
        Signature Algorithm: sha256WithRSAEncryption
        Issuer: C=FR, ST=Radius, L=Somewhere, O=Example Inc./emailAddress=admin@example.org, CN=Example Certificate Authority
        Validity
            Not Before: Mar 24 18:56:13 2020 GMT
            Not After : May 23 18:56:13 2020 GMT
        Subject: C=FR, ST=Radius, O=Example Inc., CN=Example Server Certificate/emailAddress=admin@example.org
        Subject Public Key Info:
            Public Key Algorithm: rsaEncryption
                RSA Public-Key: (2048 bit)
                Modulus:
                    00:b7:9d:14:db:8e:89:15:2e:b1:2d:d9:77:0c:91:
                    b0:e2:5b:1b:93:db:a4:04:77:ce:ef:30:f5:6a:6e:
                    80:4e:f1:d2:87:4c:ee:dc:0f:ea:e6:6e:af:50:b1:
                    88:93:2d:12:f5:ba:c8:19:73:bd:35:fa:4b:28:79:
                    9d:32:c2:99:07:48:55:db:4a:3f:18:f3:7c:4c:65:
                    bd:f1:eb:ed:99:c3:c4:8e:ed:d5:2f:8b:f6:f9:ab:
                    23:7a:75:7d:b2:55:c2:81:1b:f8:62:25:dc:81:05:
                    b3:a1:a7:98:c2:07:22:0a:72:f3:13:5a:2e:ae:2a:
                    82:88:ea:77:74:c2:1a:47:34:ce:dd:e4:6c:95:b5:
                    fb:6d:78:25:5a:f0:24:6a:ba:d9:5d:69:ef:b7:e2:
                    e7:56:bd:6b:c7:27:4a:5b:c2:cd:80:e5:0a:fc:e3:
                    cc:3f:c5:84:21:85:39:2f:40:31:8a:29:f3:b8:53:
                    8b:6b:98:51:ba:29:10:4b:84:25:60:7c:3d:7a:97:
                    0a:a8:a8:00:ec:ae:da:e7:d5:57:8a:1c:9d:2b:71:
                    18:76:3a:25:88:55:f0:ef:38:bc:b3:72:b8:e7:0d:
                    1d:d1:25:ed:21:77:52:d0:e8:9d:37:64:79:20:45:
                    df:0a:7a:7b:78:91:93:6b:01:09:4e:9f:fa:46:cd:
                    6b:3b
                Exponent: 65537 (0x10001)
        X509v3 extensions:
            X509v3 Extended Key Usage: 
                TLS Web Server Authentication
            X509v3 CRL Distribution Points: 

                Full Name:
                  URI:http://www.example.com/example_ca.crl

            X509v3 Certificate Policies: 
                Policy: 1.3.6.1.4.1.40808.1.3.2

    Signature Algorithm: sha256WithRSAEncryption
         63:e3:86:cf:28:20:35:cf:a9:22:3e:dd:8f:1f:76:07:4a:79:
         a9:9a:24:71:09:d9:3c:06:fc:76:bc:53:e8:c6:23:99:08:4e:
         a3:fe:f3:a7:2e:8f:83:95:b6:d0:8d:5d:fb:39:70:ae:ae:5c:
         d9:87:ea:d0:e4:61:a6:e9:bf:c2:db:8a:1d:5f:04:e1:d2:72:
         f2:38:d5:96:51:6e:a0:e1:67:19:c2:b5:68:86:91:d5:09:f7:
         45:fe:ae:66:b3:54:93:ca:69:97:bb:84:50:64:8a:80:f6:b7:
         28:14:3f:54:db:40:50:8d:9a:f2:06:d0:f9:ce:e8:fc:15:03:
         23:a9:77:0f:99:f5:94:73:ea:c7:02:fa:14:63:0b:b1:98:42:
         9b:e2:d8:82:7b:9f:86:35:60:59:1b:cb:15:3e:ae:f7:c7:f4:
         8f:4d:bf:63:f5:85:2d:44:98:c2:20:1c:97:1e:94:b1:f7:c0:
         3d:db:07:a7:b3:22:43:6b:ea:fb:6d:2a:b6:23:07:54:99:ab:
         57:e7:f0:bc:b5:ff:6e:ab:96:9f:34:e9:c0:dd:e7:42:28:25:
         b0:1c:17:59:87:2b:19:f0:18:26:c4:ff:81:82:b7:56:2c:a6:
         5c:ad:ae:18:0a:8f:ea:3a:53:aa:f5:ca:89:24:d0:c4:f9:2c:
         44:bb:70:a5
-----BEGIN CERTIFICATE-----
MIID9DCCAtygAwIBAgIBATANBgkqhkiG9w0BAQsFADCBkzELMAkGA1UEBhMCRlIx
DzANBgNVBAgMBlJhZGl1czESMBAGA1UEBwwJU29tZXdoZXJlMRUwEwYDVQQKDAxF
eGFtcGxlIEluYy4xIDAeBgkqhkiG9w0BCQEWEWFkbWluQGV4YW1wbGUub3JnMSYw
JAYDVQQDDB1FeGFtcGxlIENlcnRpZmljYXRlIEF1dGhvcml0eTAeFw0yMDAzMjQx
ODU2MTNaFw0yMDA1MjMxODU2MTNaMHwxCzAJBgNVBAYTAkZSMQ8wDQYDVQQIDAZS
YWRpdXMxFTATBgNVBAoMDEV4YW1wbGUgSW5jLjEjMCEGA1UEAwwaRXhhbXBsZSBT
ZXJ2ZXIgQ2VydGlmaWNhdGUxIDAeBgkqhkiG9w0BCQEWEWFkbWluQGV4YW1wbGUu
b3JnMIIBIjANBgkqhkiG9w0BAQEFAAOCAQ8AMIIBCgKCAQEAt50U246JFS6xLdl3
DJGw4lsbk9ukBHfO7zD1am6ATvHSh0zu3A/q5m6vULGIky0S9brIGXO9NfpLKHmd
MsKZB0hV20o/GPN8TGW98evtmcPEju3VL4v2+asjenV9slXCgRv4YiXcgQWzoaeY
wgciCnLzE1ouriqCiOp3dMIaRzTO3eRslbX7bXglWvAkarrZXWnvt+LnVr1rxydK
W8LNgOUK/OPMP8WEIYU5L0AxiinzuFOLa5hRuikQS4QlYHw9epcKqKgA7K7a59VX
ihydK3EYdjoliFXw7zi8s3K45w0d0SXtIXdS0OidN2R5IEXfCnp7eJGTawEJTp/6
Rs1rOwIDAQABo2kwZzATBgNVHSUEDDAKBggrBgEFBQcDATA2BgNVHR8ELzAtMCug
KaAnhiVodHRwOi8vd3d3LmV4YW1wbGUuY29tL2V4YW1wbGVfY2EuY3JsMBgGA1Ud
IAQRMA8wDQYLKwYBBAGCvmgBAwIwDQYJKoZIhvcNAQELBQADggEBAGPjhs8oIDXP
qSI+3Y8fdgdKeamaJHEJ2TwG/Ha8U+jGI5kITqP+86cuj4OVttCNXfs5cK6uXNmH
6tDkYabpv8Lbih1fBOHScvI41ZZRbqDhZxnCtWiGkdUJ90X+rmazVJPKaZe7hFBk
ioD2tygUP1TbQFCNmvIG0PnO6PwVAyOpdw+Z9ZRz6scC+hRjC7GYQpvi2IJ7n4Y1
YFkbyxU+rvfH9I9Nv2P1hS1EmMIgHJcelLH3wD3bB6ezIkNr6vttKrYjB1SZq1fn
8Ly1/26rlp806cDd50IoJbAcF1mHKxnwGCbE/4GCt1YsplytrhgKj+o6U6r1yokk
0MT5LES7cKU=
-----END CERTIFICATE-----
