Certificate:
    Data:
        Version: 3 (0x2)
        Serial Number: 2 (0x2)
        Signature Algorithm: sha256WithRSAEncryption
        Issuer: C=FR, ST=Radius, L=Somewhere, O=Example Inc./emailAddress=admin@example.org, CN=Example Certificate Authority
        Validity
            Not Before: Mar 24 18:56:13 2020 GMT
            Not After : May 23 18:56:13 2020 GMT
        Subject: C=FR, ST=Radius, O=Example Inc., CN=user@example.org/emailAddress=user@example.org
        Subject Public Key Info:
            Public Key Algorithm: rsaEncryption
                RSA Public-Key: (2048 bit)
                Modulus:
                    00:a5:da:0a:a2:9c:5b:f4:c2:4a:ad:51:88:c8:40:
                    1f:41:18:e6:a9:f5:4a:24:55:6e:fa:4e:c6:39:91:
                    cf:16:93:4f:18:12:cc:46:2a:44:16:2b:a7:6b:65:
                    e9:05:29:fc:2c:10:ee:8d:5e:8a:f1:f0:03:3e:b0:
                    fc:ee:4e:23:6b:f7:57:9c:1a:a4:f1:94:a7:c0:33:
                    c8:4a:b0:1f:ad:8d:3b:8d:28:44:8a:95:22:34:1e:
                    9d:97:de:a1:af:13:60:49:0f:9a:29:fc:d6:09:95:
                    2a:b9:9c:f3:a7:91:59:a9:44:08:c8:56:ea:f5:09:
                    24:0a:66:3c:23:ee:9a:70:b6:cd:1c:be:ed:36:cc:
                    ec:7e:c1:9f:3d:7e:d4:8e:f4:9e:a2:ac:cb:ed:f8:
                    c9:bb:cb:d8:f1:18:89:2b:91:18:45:1b:30:1b:2c:
                    e0:d7:61:bc:64:36:49:74:35:cf:36:8d:94:f9:84:
                    c3:2c:96:48:9a:aa:8a:fa:a9:59:1a:44:0d:73:f2:
                    28:fb:af:b6:fe:f6:98:9a:86:6a:19:75:93:2d:9e:
                    cb:f7:db:96:c9:f5:8f:0e:ae:ea:c9:de:9b:f6:23:
                    80:40:b9:f0:7e:a1:91:c9:67:5e:91:6f:4c:45:3b:
                    c7:41:f2:bb:07:8e:19:12:b7:e0:05:e1:a0:b2:64:
                    be:7b
                Exponent: 65537 (0x10001)
        X509v3 extensions:
            X509v3 Extended Key Usage: 
                TLS Web Client Authentication
            X509v3 CRL Distribution Points: 

                Full Name:
                  URI:http://www.example.com/example_ca.crl

    Signature Algorithm: sha256WithRSAEncryption
         8e:40:aa:f5:42:0f:7c:76:dd:e5:bf:9f:9e:23:2f:57:e7:ad:
         fd:72:1f:79:b1:12:66:18:20:a7:5a:4f:80:40:b3:5e:f2:33:
         7e:55:2e:32:ce:98:20:1f:53:37:4d:71:06:22:43:d4:d1:42:
         2c:87:35:ff:3e:48:fd:ff:cf:81:e6:69:d0:62:64:3d:be:76:
         d6:72:5a:9a:90:05:5a:f4:98:9c:65:5b:4c:6a:0f:38:3b:b5:
         65:4e:be:3e:3d:fe:71:11:57:c8:80:3a:ad:07:37:e1:9c:ba:
         a7:f3:20:c9:87:9a:c8:54:24:eb:a8:59:ea:60:62:50:a0:c2:
         cf:23:bb:d3:5a:36:eb:61:ed:fa:18:01:0a:1f:b1:e1:69:84:
         a4:b5:ab:bc:9d:12:4a:27:7e:ed:59:0e:f7:d3:61:ed:ce:0f:
         88:6b:46:c5:de:3c:f0:4a:36:16:40:ce:c2:7b:cc:5a:3d:7e:
         e9:d1:fd:b8:c8:89:67:ee:14:f8:d2:97:31:a1:42:c2:4f:12:
         7d:0f:5b:c3:7b:b7:4e:61:15:44:20:d8:5b:ad:2e:07:2b:ab:
         1a:9d:73:6d:5d:20:92:0f:f3:65:67:18:e5:6e:b3:dd:e5:31:
         9f:ec:48:f3:78:2d:56:cf:f2:54:cf:12:9a:91:63:22:67:f6:
         d5:cd:b9:89
-----BEGIN CERTIFICATE-----
MIIDzzCCAregAwIBAgIBAjANBgkqhkiG9w0BAQsFADCBkzELMAkGA1UEBhMCRlIx
DzANBgNVBAgMBlJhZGl1czESMBAGA1UEBwwJU29tZXdoZXJlMRUwEwYDVQQKDAxF
eGFtcGxlIEluYy4xIDAeBgkqhkiG9w0BCQEWEWFkbWluQGV4YW1wbGUub3JnMSYw
JAYDVQQDDB1FeGFtcGxlIENlcnRpZmljYXRlIEF1dGhvcml0eTAeFw0yMDAzMjQx
ODU2MTNaFw0yMDA1MjMxODU2MTNaMHExCzAJBgNVBAYTAkZSMQ8wDQYDVQQIDAZS
YWRpdXMxFTATBgNVBAoMDEV4YW1wbGUgSW5jLjEZMBcGA1UEAwwQdXNlckBleGFt
cGxlLm9yZzEfMB0GCSqGSIb3DQEJARYQdXNlckBleGFtcGxlLm9yZzCCASIwDQYJ
KoZIhvcNAQEBBQADggEPADCCAQoCggEBAKXaCqKcW/TCSq1RiMhAH0EY5qn1SiRV
bvpOxjmRzxaTTxgSzEYqRBYrp2tl6QUp/CwQ7o1eivHwAz6w/O5OI2v3V5wapPGU
p8AzyEqwH62NO40oRIqVIjQenZfeoa8TYEkPmin81gmVKrmc86eRWalECMhW6vUJ
JApmPCPumnC2zRy+7TbM7H7Bnz1+1I70nqKsy+34ybvL2PEYiSuRGEUbMBss4Ndh
vGQ2SXQ1zzaNlPmEwyyWSJqqivqpWRpEDXPyKPuvtv72mJqGahl1ky2ey/fblsn1
jw6u6snem/YjgEC58H6hkclnXpFvTEU7x0HyuweOGRK34AXhoLJkvnsCAwEAAaNP
ME0wEwYDVR0lBAwwCgYIKwYBBQUHAwIwNgYDVR0fBC8wLTAroCmgJ4YlaHR0cDov
L3d3dy5leGFtcGxlLmNvbS9leGFtcGxlX2NhLmNybDANBgkqhkiG9w0BAQsFAAOC
AQEAjkCq9UIPfHbd5b+fniMvV+et/XIfebESZhggp1pPgECzXvIzflUuMs6YIB9T
N01xBiJD1NFCLIc1/z5I/f/PgeZp0GJkPb521nJampAFWvSYnGVbTGoPODu1ZU6+
Pj3+cRFXyIA6rQc34Zy6p/MgyYeayFQk66hZ6mBiUKDCzyO701o262Ht+hgBCh+x
4WmEpLWrvJ0SSid+7VkO99Nh7c4PiGtGxd488Eo2FkDOwnvMWj1+6dH9uMiJZ+4U
+NKXMaFCwk8SfQ9bw3u3TmEVRCDYW60uByurGp1zbV0gkg/zZWcY5W6z3eUxn+xI
83gtVs/yVM8SmpFjImf21c25iQ==
-----END CERTIFICATE-----
